; Function Attrs: nounwind uwtable
define internal i32 @dissect_spnego_T_mechToken(i1 noundef zeroext %0, ptr noundef %1, i32 noundef %2, ptr noundef %3, ptr noundef %4, i32 noundef %5) #0 {
  %7 = alloca ptr, align 8
  store ptr null, ptr %7, align 8
  %8 = call i32 @dissect_ber_octet_string(i1 noundef zeroext %0, ptr noundef %3, ptr noundef %4, ptr noundef %1, i32 noundef %2, i32 noundef %5, ptr noundef nonnull %7) #6
  %9 = load ptr, ptr %7, align 8
  %10 = icmp ne ptr %9, null
  %11 = load ptr, ptr @next_level_value, align 8
  %12 = icmp ne ptr %11, null
  %or.cond = select i1 %10, i1 %12, i1 false
  br i1 %or.cond, label %13, label %19

13:                                               ; preds = %6
  %14 = getelementptr inbounds nuw i8, ptr %11, i64 16
  %15 = load ptr, ptr %14, align 8
  %16 = getelementptr inbounds nuw i8, ptr %3, i64 16
  %17 = load ptr, ptr %16, align 8
  %18 = call i32 @call_dissector(ptr noundef %15, ptr noundef nonnull %9, ptr noundef %17, ptr noundef %4) #6
  br label %19

19:                                               ; preds = %13, %6
  ret i32 %8
}